; Function Attrs: mustprogress nounwind uwtable
define hidden void @_ZN5ceres12ComposedLossD0Ev(ptr noundef nonnull align 8 dereferenceable(32) %0) unnamed_addr #11 align 2 personality ptr @__gxx_personality_v0 {
  %2 = getelementptr inbounds nuw i8, ptr %0, i64 24
  %3 = load i32, ptr %2, align 8, !tbaa !41
  %4 = icmp eq i32 %3, 0
  br i1 %4, label %5, label %7

5:                                                ; preds = %1
  %6 = getelementptr inbounds nuw i8, ptr %0, i64 8
  store ptr null, ptr %6, align 8, !tbaa !39
  br label %7

7:                                                ; preds = %5, %1
  %8 = getelementptr inbounds nuw i8, ptr %0, i64 28
  %9 = load i32, ptr %8, align 4, !tbaa !50
  %10 = icmp eq i32 %9, 0
  %11 = getelementptr inbounds nuw i8, ptr %0, i64 16
  br i1 %10, label %_ZNSt10unique_ptrIKN5ceres12LossFunctionESt14default_deleteIS2_EED2Ev.exit.i, label %12

12:                                               ; preds = %7
  %.pre.i = load ptr, ptr %11, align 8, !tbaa !39
  %.not.i.i = icmp eq ptr %.pre.i, null
  br i1 %.not.i.i, label %_ZNSt10unique_ptrIKN5ceres12LossFunctionESt14default_deleteIS2_EED2Ev.exit.i, label %_ZNKSt14default_deleteIKN5ceres12LossFunctionEEclEPS2_.exit.i.i

_ZNKSt14default_deleteIKN5ceres12LossFunctionEEclEPS2_.exit.i.i: ; preds = %12
  %13 = load ptr, ptr %.pre.i, align 8, !tbaa !22
  %14 = getelementptr inbounds nuw i8, ptr %13, i64 8
  %15 = load ptr, ptr %14, align 8
  tail call void %15(ptr noundef nonnull align 8 dereferenceable(8) %.pre.i) #17
  br label %_ZNSt10unique_ptrIKN5ceres12LossFunctionESt14default_deleteIS2_EED2Ev.exit.i

_ZNSt10unique_ptrIKN5ceres12LossFunctionESt14default_deleteIS2_EED2Ev.exit.i: ; preds = %_ZNKSt14default_deleteIKN5ceres12LossFunctionEEclEPS2_.exit.i.i, %12, %7
  store ptr null, ptr %11, align 8, !tbaa !39
  %16 = getelementptr inbounds nuw i8, ptr %0, i64 8
  %17 = load ptr, ptr %16, align 8, !tbaa !39
  %.not.i1.i = icmp eq ptr %17, null
  br i1 %.not.i1.i, label %_ZN5ceres12ComposedLossD2Ev.exit, label %_ZNKSt14default_deleteIKN5ceres12LossFunctionEEclEPS2_.exit.i2.i

_ZNKSt14default_deleteIKN5ceres12LossFunctionEEclEPS2_.exit.i2.i: ; preds = %_ZNSt10unique_ptrIKN5ceres12LossFunctionESt14default_deleteIS2_EED2Ev.exit.i
  %18 = load ptr, ptr %17, align 8, !tbaa !22
  %19 = getelementptr inbounds nuw i8, ptr %18, i64 8
  %20 = load ptr, ptr %19, align 8
  tail call void %20(ptr noundef nonnull align 8 dereferenceable(8) %17) #17
  br label %_ZN5ceres12ComposedLossD2Ev.exit

_ZN5ceres12ComposedLossD2Ev.exit:                 ; preds = %_ZNSt10unique_ptrIKN5ceres12LossFunctionESt14default_deleteIS2_EED2Ev.exit.i, %_ZNKSt14default_deleteIKN5ceres12LossFunctionEEclEPS2_.exit.i2.i
  tail call void @_ZdlPvm(ptr noundef nonnull %0, i64 noundef 32) #19
  ret void
}